target datalayout = "e-m:e-p270:32:32-p271:32:32-p272:64:64-i64:64-i128:128-f80:128-n8:16:32:64-S128"
target triple = "x86_64-pc-linux-gnu"

%struct.bio_st = type { ptr, ptr, ptr, ptr, ptr, i32, i32, i32, i32, i32, ptr, ptr, ptr, %struct.CRYPTO_REF_COUNT, i64, i64, %struct.crypto_ex_data_st }
%struct.CRYPTO_REF_COUNT = type { i32 }
%struct.crypto_ex_data_st = type { ptr, ptr }
%struct.bio_accept_st = type { i32, i32, i32, i32, ptr, ptr, i32, ptr, ptr, %union.bio_addr_st, ptr, ptr, %union.bio_addr_st, ptr, ptr, ptr }
%union.bio_addr_st = type { %struct.sockaddr_in6, [84 x i8] }
%struct.sockaddr_in6 = type { i16, i16, i32, %struct.in6_addr, i32 }
%struct.in6_addr = type { %union.anon }
%union.anon = type { [4 x i32] }

@.str.2 = private unnamed_addr constant [33 x i8] c"../openssl/crypto/bio/bss_acpt.c\00", align 1

; Function Attrs: nounwind uwtable
define internal ptr @BIO_ACCEPT_new() #0 {
  %1 = alloca ptr, align 8
  %2 = alloca ptr, align 8
  %3 = alloca i32, align 4
  call void @llvm.lifetime.start.p0(i64 8, ptr %2) #6
  %4 = call noalias ptr @CRYPTO_zalloc(i64 noundef 320, ptr noundef @.str.2, i32 noundef 95)
  store ptr %4, ptr %2, align 8, !tbaa !20
  %5 = icmp eq ptr %4, null
  br i1 %5, label %6, label %7

6:                                                ; preds = %0
  store ptr null, ptr %1, align 8
  store i32 1, ptr %3, align 4
  br label %13

7:                                                ; preds = %0
  %8 = load ptr, ptr %2, align 8, !tbaa !20
  %9 = getelementptr inbounds nuw %struct.bio_accept_st, ptr %8, i32 0, i32 1
  store i32 256, ptr %9, align 4, !tbaa !38
  %10 = load ptr, ptr %2, align 8, !tbaa !20
  %11 = getelementptr inbounds nuw %struct.bio_accept_st, ptr %10, i32 0, i32 6
  store i32 -1, ptr %11, align 8, !tbaa !41
  %12 = load ptr, ptr %2, align 8, !tbaa !20
  store ptr %12, ptr %1, align 8
  store i32 1, ptr %3, align 4
  br label %13

13:                                               ; preds = %7, %6
  call void @llvm.lifetime.end.p0(i64 8, ptr %2) #6
  %14 = load ptr, ptr %1, align 8
  ret ptr %14
}

; Function Attrs: nounwind uwtable
define internal i32 @acpt_new(ptr noundef %0) #0 {
  %2 = alloca i32, align 4
  %3 = alloca ptr, align 8
  %4 = alloca ptr, align 8
  %5 = alloca i32, align 4
  store ptr %0, ptr %3, align 8, !tbaa !8
  call void @llvm.lifetime.start.p0(i64 8, ptr %4) #6
  %6 = load ptr, ptr %3, align 8, !tbaa !8
  %7 = getelementptr inbounds nuw %struct.bio_st, ptr %6, i32 0, i32 5
  store i32 0, ptr %7, align 8, !tbaa !35
  %8 = load ptr, ptr %3, align 8, !tbaa !8
  %9 = getelementptr inbounds nuw %struct.bio_st, ptr %8, i32 0, i32 9
  store i32 -1, ptr %9, align 8, !tbaa !40
  %10 = load ptr, ptr %3, align 8, !tbaa !8
  %11 = getelementptr inbounds nuw %struct.bio_st, ptr %10, i32 0, i32 7
  store i32 0, ptr %11, align 8, !tbaa !32
  %12 = call ptr @BIO_ACCEPT_new()
  store ptr %12, ptr %4, align 8, !tbaa !20
  %13 = icmp eq ptr %12, null
  br i1 %13, label %14, label %15

14:                                               ; preds = %1
  store i32 0, ptr %2, align 4
  store i32 1, ptr %5, align 4
  br label %23

15:                                               ; preds = %1
  %16 = load ptr, ptr %4, align 8, !tbaa !20
  %17 = load ptr, ptr %3, align 8, !tbaa !8
  %18 = getelementptr inbounds nuw %struct.bio_st, ptr %17, i32 0, i32 10
  store ptr %16, ptr %18, align 8, !tbaa !12
  %19 = load ptr, ptr %4, align 8, !tbaa !20
  %20 = getelementptr inbounds nuw %struct.bio_accept_st, ptr %19, i32 0, i32 0
  store i32 1, ptr %20, align 8, !tbaa !28
  %21 = load ptr, ptr %3, align 8, !tbaa !8
  %22 = getelementptr inbounds nuw %struct.bio_st, ptr %21, i32 0, i32 6
  store i32 1, ptr %22, align 4, !tbaa !42
  store i32 1, ptr %2, align 4
  store i32 1, ptr %5, align 4
  br label %23

23:                                               ; preds = %15, %14
  call void @llvm.lifetime.end.p0(i64 8, ptr %4) #6
  %24 = load i32, ptr %2, align 4
  ret i32 %24
}