; Function Attrs: nounwind uwtable
define internal range(i32 0, 2) i32 @acpt_new(ptr noundef writeonly captures(none) initializes((40, 44), (48, 52), (56, 60)) %0) #1 {
  %2 = getelementptr inbounds nuw i8, ptr %0, i64 40
  store i32 0, ptr %2, align 8, !tbaa !30
  %3 = getelementptr inbounds nuw i8, ptr %0, i64 56
  store i32 -1, ptr %3, align 8, !tbaa !25
  %4 = getelementptr inbounds nuw i8, ptr %0, i64 48
  store i32 0, ptr %4, align 8, !tbaa !27
  %5 = tail call noalias ptr @CRYPTO_zalloc(i64 noundef 320, ptr noundef nonnull @.str.2, i32 noundef 95) #7
  %6 = icmp eq ptr %5, null
  br i1 %6, label %BIO_ACCEPT_new.exit.thread, label %7

7:                                                ; preds = %1
  %8 = getelementptr inbounds nuw i8, ptr %5, i64 4
  store i32 256, ptr %8, align 4, !tbaa !34
  %9 = getelementptr inbounds nuw i8, ptr %5, i64 32
  store i32 -1, ptr %9, align 8, !tbaa !24
  %10 = getelementptr inbounds nuw i8, ptr %0, i64 64
  store ptr %5, ptr %10, align 8, !tbaa !3
  store i32 1, ptr %5, align 8, !tbaa !21
  %11 = getelementptr inbounds nuw i8, ptr %0, i64 44
  store i32 1, ptr %11, align 4, !tbaa !36
  br label %BIO_ACCEPT_new.exit.thread

BIO_ACCEPT_new.exit.thread:                       ; preds = %1, %7
  %.0 = phi i32 [ 1, %7 ], [ 0, %1 ]
  ret i32 %.0
}